; Function Attrs: mustprogress nofree norecurse nosync nounwind willreturn memory(argmem: readwrite) uwtable
define internal void @_ZN7rocksdb12_GLOBAL__N_122BatchContentClassifier23MarkCommitWithTimestampERKNS_5SliceES4_(ptr noalias nocapture writeonly sret(%"class.rocksdb::Status") align 8 %agg.result, ptr nocapture noundef nonnull align 8 dereferenceable(12) %this, ptr nocapture nonnull readnone align 8 %0, ptr nocapture nonnull readnone align 8 %1) unnamed_addr #16 align 2 personality ptr @__gxx_personality_v0 {
entry:
  %content_flags = getelementptr inbounds i8, ptr %this, i64 8
  %2 = load i32, ptr %content_flags, align 8
  %or = or i32 %2, 128
  store i32 %or, ptr %content_flags, align 8
  %state_.i.i = getelementptr inbounds i8, ptr %agg.result, i64 8
  store ptr null, ptr %state_.i.i, align 8, !alias.scope !165
  tail call void @llvm.memset.p0.i64(ptr noundef nonnull align 8 dereferenceable(6) %agg.result, i8 0, i64 6, i1 false), !alias.scope !165
  ret void
}